target datalayout = "e-m:e-p270:32:32-p271:32:32-p272:64:64-i64:64-i128:128-f80:128-n8:16:32:64-S128"
target triple = "x86_64-pc-linux-gnu"

%struct.JNINativeInterface_ = type { ptr, ptr, ptr, ptr, ptr, ptr, ptr, ptr, ptr, ptr, ptr, ptr, ptr, ptr, ptr, ptr, ptr, ptr, ptr, ptr, ptr, ptr, ptr, ptr, ptr, ptr, ptr, ptr, ptr, ptr, ptr, ptr, ptr, ptr, ptr, ptr, ptr, ptr, ptr, ptr, ptr, ptr, ptr, ptr, ptr, ptr, ptr, ptr, ptr, ptr, ptr, ptr, ptr, ptr, ptr, ptr, ptr, ptr, ptr, ptr, ptr, ptr, ptr, ptr, ptr, ptr, ptr, ptr, ptr, ptr, ptr, ptr, ptr, ptr, ptr, ptr, ptr, ptr, ptr, ptr, ptr, ptr, ptr, ptr, ptr, ptr, ptr, ptr, ptr, ptr, ptr, ptr, ptr, ptr, ptr, ptr, ptr, ptr, ptr, ptr, ptr, ptr, ptr, ptr, ptr, ptr, ptr, ptr, ptr, ptr, ptr, ptr, ptr, ptr, ptr, ptr, ptr, ptr, ptr, ptr, ptr, ptr, ptr, ptr, ptr, ptr, ptr, ptr, ptr, ptr, ptr, ptr, ptr, ptr, ptr, ptr, ptr, ptr, ptr, ptr, ptr, ptr, ptr, ptr, ptr, ptr, ptr, ptr, ptr, ptr, ptr, ptr, ptr, ptr, ptr, ptr, ptr, ptr, ptr, ptr, ptr, ptr, ptr, ptr, ptr, ptr, ptr, ptr, ptr, ptr, ptr, ptr, ptr, ptr, ptr, ptr, ptr, ptr, ptr, ptr, ptr, ptr, ptr, ptr, ptr, ptr, ptr, ptr, ptr, ptr, ptr, ptr, ptr, ptr, ptr, ptr, ptr, ptr, ptr, ptr, ptr, ptr, ptr, ptr, ptr, ptr, ptr, ptr, ptr, ptr, ptr, ptr, ptr, ptr, ptr, ptr, ptr, ptr, ptr, ptr, ptr, ptr, ptr, ptr, ptr, ptr, ptr, ptr, ptr, ptr, ptr, ptr, ptr, ptr, ptr }

@.str = private unnamed_addr constant [3 x i8] c"fd\00", align 1
@.str.1 = private unnamed_addr constant [2 x i8] c"I\00", align 1
@IO_fd_fdID = hidden global ptr null, align 8
@.str.2 = private unnamed_addr constant [7 x i8] c"append\00", align 1
@.str.3 = private unnamed_addr constant [2 x i8] c"Z\00", align 1
@IO_append_fdID = hidden global ptr null, align 8
@.str.4 = private unnamed_addr constant [28 x i8] c"java/io/SyncFailedException\00", align 1
@.str.5 = private unnamed_addr constant [12 x i8] c"sync failed\00", align 1
@.str.6 = private unnamed_addr constant [13 x i8] c"close failed\00", align 1

; Function Attrs: nounwind uwtable
define void @Java_java_io_FileDescriptor_initIDs(ptr noundef %0, ptr noundef %1) #0 {
  %3 = alloca ptr, align 8
  %4 = alloca ptr, align 8
  store ptr %0, ptr %3, align 8
  store ptr %1, ptr %4, align 8
  br label %5

5:                                                ; preds = %2
  %6 = load ptr, ptr %3, align 8
  %7 = load ptr, ptr %6, align 8
  %8 = getelementptr inbounds %struct.JNINativeInterface_, ptr %7, i32 0, i32 94
  %9 = load ptr, ptr %8, align 8
  %10 = load ptr, ptr %3, align 8
  %11 = load ptr, ptr %4, align 8
  %12 = call ptr %9(ptr noundef %10, ptr noundef %11, ptr noundef @.str, ptr noundef @.str.1)
  store ptr %12, ptr @IO_fd_fdID, align 8
  %13 = icmp eq ptr %12, null
  br i1 %13, label %14, label %15

14:                                               ; preds = %5
  br label %28

15:                                               ; preds = %5
  br label %16

16:                                               ; preds = %15
  br label %17

17:                                               ; preds = %16
  %18 = load ptr, ptr %3, align 8
  %19 = load ptr, ptr %18, align 8
  %20 = getelementptr inbounds %struct.JNINativeInterface_, ptr %19, i32 0, i32 94
  %21 = load ptr, ptr %20, align 8
  %22 = load ptr, ptr %3, align 8
  %23 = load ptr, ptr %4, align 8
  %24 = call ptr %21(ptr noundef %22, ptr noundef %23, ptr noundef @.str.2, ptr noundef @.str.3)
  store ptr %24, ptr @IO_append_fdID, align 8
  %25 = icmp eq ptr %24, null
  br i1 %25, label %26, label %27

26:                                               ; preds = %17
  br label %28

27:                                               ; preds = %17
  br label %28

28:                                               ; preds = %27, %26, %14
  ret void
}

; Function Attrs: nounwind uwtable
define void @Java_java_io_FileDescriptor_sync0(ptr noundef %0, ptr noundef %1) #0 {
  %3 = alloca ptr, align 8
  %4 = alloca ptr, align 8
  %5 = alloca i32, align 4
  store ptr %0, ptr %3, align 8
  store ptr %1, ptr %4, align 8
  %6 = load ptr, ptr %3, align 8
  %7 = load ptr, ptr %6, align 8
  %8 = getelementptr inbounds %struct.JNINativeInterface_, ptr %7, i32 0, i32 100
  %9 = load ptr, ptr %8, align 8
  %10 = load ptr, ptr %3, align 8
  %11 = load ptr, ptr %4, align 8
  %12 = load ptr, ptr @IO_fd_fdID, align 8
  %13 = call i32 %9(ptr noundef %10, ptr noundef %11, ptr noundef %12)
  store i32 %13, ptr %5, align 4
  %14 = load i32, ptr %5, align 4
  %15 = call i32 @fsync(i32 noundef %14)
  %16 = icmp eq i32 %15, -1
  br i1 %16, label %17, label %19

17:                                               ; preds = %2
  %18 = load ptr, ptr %3, align 8
  call void @JNU_ThrowByName(ptr noundef %18, ptr noundef @.str.4, ptr noundef @.str.5)
  br label %19

19:                                               ; preds = %17, %2
  ret void
}

declare i32 @fsync(i32 noundef) #1

declare void @JNU_ThrowByName(ptr noundef, ptr noundef, ptr noundef) #1

; Function Attrs: nounwind uwtable
define i64 @Java_java_io_FileDescriptor_getHandle(ptr noundef %0, ptr noundef %1, i32 noundef %2) #0 {
  %4 = alloca ptr, align 8
  %5 = alloca ptr, align 8
  %6 = alloca i32, align 4
  store ptr %0, ptr %4, align 8
  store ptr %1, ptr %5, align 8
  store i32 %2, ptr %6, align 4
  ret i64 -1
}

; Function Attrs: nounwind uwtable
define zeroext i8 @Java_java_io_FileDescriptor_getAppend(ptr noundef %0, ptr noundef %1, i32 noundef %2) #0 {
  %4 = alloca ptr, align 8
  %5 = alloca ptr, align 8
  %6 = alloca i32, align 4
  %7 = alloca i32, align 4
  store ptr %0, ptr %4, align 8
  store ptr %1, ptr %5, align 8
  store i32 %2, ptr %6, align 4
  %8 = load i32, ptr %6, align 4
  %9 = call i32 (i32, i32, ...) @fcntl64(i32 noundef %8, i32 noundef 3)
  store i32 %9, ptr %7, align 4
  %10 = load i32, ptr %7, align 4
  %11 = and i32 %10, 1024
  %12 = icmp eq i32 %11, 0
  %13 = select i1 %12, i32 0, i32 1
  %14 = trunc i32 %13 to i8
  ret i8 %14
}

declare i32 @fcntl64(i32 noundef, i32 noundef, ...) #1

; Function Attrs: nounwind uwtable
define void @Java_java_io_FileDescriptor_close0(ptr noundef %0, ptr noundef %1) #0 {
  %3 = alloca ptr, align 8
  %4 = alloca ptr, align 8
  store ptr %0, ptr %3, align 8
  store ptr %1, ptr %4, align 8
  %5 = load ptr, ptr %3, align 8
  %6 = load ptr, ptr %4, align 8
  call void @fileDescriptorClose(ptr noundef %5, ptr noundef %6)
  ret void
}

declare void @fileDescriptorClose(ptr noundef, ptr noundef) #1

; Function Attrs: nounwind uwtable
define void @Java_java_io_FileCleanable_cleanupClose0(ptr noundef %0, ptr noundef %1, i32 noundef %2, i64 noundef %3) #0 {
  %5 = alloca ptr, align 8
  %6 = alloca ptr, align 8
  %7 = alloca i32, align 4
  %8 = alloca i64, align 8
  store ptr %0, ptr %5, align 8
  store ptr %1, ptr %6, align 8
  store i32 %2, ptr %7, align 4
  store i64 %3, ptr %8, align 8
  %9 = load i32, ptr %7, align 4
  %10 = icmp ne i32 %9, -1
  br i1 %10, label %11, label %18

11:                                               ; preds = %4
  %12 = load i32, ptr %7, align 4
  %13 = call i32 @close(i32 noundef %12)
  %14 = icmp eq i32 %13, -1
  br i1 %14, label %15, label %17

15:                                               ; preds = %11
  %16 = load ptr, ptr %5, align 8
  call void @JNU_ThrowIOExceptionWithLastError(ptr noundef %16, ptr noundef @.str.6)
  br label %17

17:                                               ; preds = %15, %11
  br label %18

18:                                               ; preds = %17, %4
  ret void
}

declare i32 @close(i32 noundef) #1

declare void @JNU_ThrowIOExceptionWithLastError(ptr noundef, ptr noundef) #1


!llvm.module.flags = !{!0, !1, !2, !3, !4, !5}

!0 = !{i32 7, !"Dwarf Version", i32 5}
!1 = !{i32 2, !"Debug Info Version", i32 3}
!2 = !{i32 1, !"wchar_size", i32 4}
!3 = !{i32 8, !"PIC Level", i32 2}
!4 = !{i32 7, !"uwtable", i32 2}
!5 = !{i32 7, !"frame-pointer", i32 2}
